(lp0
S'poi'
p1
aS'bonus'
p2
aS'total_stock_value'
p3
aS'salary'
p4
aS'deferred_income'
p5
aS'strength_of_email_conn_to_POI'
p6
aS'exercised_stock_options'
p7
aS'long_term_incentive'
p8
aS'fraction_to_poi'
p9
a.